target datalayout = "e-m:e-p270:32:32-p271:32:32-p272:64:64-i64:64-i128:128-f80:128-n8:16:32:64-S128"
target triple = "x86_64-pc-linux-gnu"

%struct.hashmap_iter = type { ptr, ptr, i32 }
%struct.submodule_cache = type { %struct.hashmap, %struct.hashmap, i8 }
%struct.hashmap = type { ptr, ptr, ptr, i32, i32, i32, i32, i8 }
%struct.object_id = type { [32 x i8], i32 }
%struct.submodule_entry = type { %struct.hashmap_entry, ptr }
%struct.hashmap_entry = type { ptr, i32 }
%struct.submodule = type { ptr, ptr, ptr, i32, ptr, ptr, %struct.submodule_update_strategy, %struct.object_id, i32 }
%struct.submodule_update_strategy = type { i32, ptr }

; Function Attrs: nounwind uwtable
define internal void @free_one_config(ptr noundef %0) #0 {
  %2 = alloca ptr, align 8
  store ptr %0, ptr %2, align 8, !tbaa !9
  %3 = load ptr, ptr %2, align 8, !tbaa !9
  %4 = getelementptr inbounds nuw %struct.submodule_entry, ptr %3, i32 0, i32 1
  %5 = load ptr, ptr %4, align 8, !tbaa !90
  %6 = getelementptr inbounds nuw %struct.submodule, ptr %5, i32 0, i32 0
  %7 = load ptr, ptr %6, align 8, !tbaa !126
  call void @free(ptr noundef %7) #9
  %8 = load ptr, ptr %2, align 8, !tbaa !9
  %9 = getelementptr inbounds nuw %struct.submodule_entry, ptr %8, i32 0, i32 1
  %10 = load ptr, ptr %9, align 8, !tbaa !90
  %11 = getelementptr inbounds nuw %struct.submodule, ptr %10, i32 0, i32 1
  %12 = load ptr, ptr %11, align 8, !tbaa !129
  call void @free(ptr noundef %12) #9
  %13 = load ptr, ptr %2, align 8, !tbaa !9
  %14 = getelementptr inbounds nuw %struct.submodule_entry, ptr %13, i32 0, i32 1
  %15 = load ptr, ptr %14, align 8, !tbaa !90
  %16 = getelementptr inbounds nuw %struct.submodule, ptr %15, i32 0, i32 5
  %17 = load ptr, ptr %16, align 8, !tbaa !130
  call void @free(ptr noundef %17) #9
  %18 = load ptr, ptr %2, align 8, !tbaa !9
  %19 = getelementptr inbounds nuw %struct.submodule_entry, ptr %18, i32 0, i32 1
  %20 = load ptr, ptr %19, align 8, !tbaa !90
  %21 = getelementptr inbounds nuw %struct.submodule, ptr %20, i32 0, i32 2
  %22 = load ptr, ptr %21, align 8, !tbaa !131
  call void @free(ptr noundef %22) #9
  %23 = load ptr, ptr %2, align 8, !tbaa !9
  %24 = getelementptr inbounds nuw %struct.submodule_entry, ptr %23, i32 0, i32 1
  %25 = load ptr, ptr %24, align 8, !tbaa !90
  %26 = getelementptr inbounds nuw %struct.submodule, ptr %25, i32 0, i32 4
  %27 = load ptr, ptr %26, align 8, !tbaa !132
  call void @free(ptr noundef %27) #9
  %28 = load ptr, ptr %2, align 8, !tbaa !9
  %29 = getelementptr inbounds nuw %struct.submodule_entry, ptr %28, i32 0, i32 1
  %30 = load ptr, ptr %29, align 8, !tbaa !90
  %31 = getelementptr inbounds nuw %struct.submodule, ptr %30, i32 0, i32 6
  call void @submodule_update_strategy_release(ptr noundef %31)
  %32 = load ptr, ptr %2, align 8, !tbaa !9
  %33 = getelementptr inbounds nuw %struct.submodule_entry, ptr %32, i32 0, i32 1
  %34 = load ptr, ptr %33, align 8, !tbaa !90
  call void @free(ptr noundef %34) #9
  ret void
}

; Function Attrs: inlinehint nounwind uwtable
define internal ptr @container_of_or_null_offset(ptr noundef %0, i64 noundef %1) #2 {
  %3 = alloca ptr, align 8
  %4 = alloca i64, align 8
  store ptr %0, ptr %3, align 8, !tbaa !51
  store i64 %1, ptr %4, align 8, !tbaa !94
  %5 = load ptr, ptr %3, align 8, !tbaa !51
  %6 = icmp ne ptr %5, null
  br i1 %6, label %7, label %12

7:                                                ; preds = %2
  %8 = load ptr, ptr %3, align 8, !tbaa !51
  %9 = load i64, ptr %4, align 8, !tbaa !94
  %10 = sub i64 0, %9
  %11 = getelementptr inbounds i8, ptr %8, i64 %10
  br label %13

12:                                               ; preds = %2
  br label %13

13:                                               ; preds = %12, %7
  %14 = phi ptr [ %11, %7 ], [ null, %12 ]
  ret ptr %14
}

; Function Attrs: inlinehint nounwind uwtable
define internal ptr @hashmap_iter_first(ptr noundef %0, ptr noundef %1) #2 {
  %3 = alloca ptr, align 8
  %4 = alloca ptr, align 8
  store ptr %0, ptr %3, align 8, !tbaa !122
  store ptr %1, ptr %4, align 8, !tbaa !124
  %5 = load ptr, ptr %3, align 8, !tbaa !122
  %6 = load ptr, ptr %4, align 8, !tbaa !124
  call void @hashmap_iter_init(ptr noundef %5, ptr noundef %6)
  %7 = load ptr, ptr %4, align 8, !tbaa !124
  %8 = call ptr @hashmap_iter_next(ptr noundef %7)
  ret ptr %8
}

; Function Attrs: nounwind uwtable
define internal void @submodule_cache_clear(ptr noundef %0) #0 {
  %2 = alloca ptr, align 8
  %3 = alloca %struct.hashmap_iter, align 8
  %4 = alloca ptr, align 8
  %5 = alloca i32, align 4
  store ptr %0, ptr %2, align 8, !tbaa !4
  call void @llvm.lifetime.start.p0(i64 24, ptr %3) #9
  call void @llvm.lifetime.start.p0(i64 8, ptr %4) #9
  %6 = load ptr, ptr %2, align 8, !tbaa !4
  %7 = getelementptr inbounds nuw %struct.submodule_cache, ptr %6, i32 0, i32 2
  %8 = load i8, ptr %7, align 8
  %9 = and i8 %8, 1
  %10 = zext i8 %9 to i32
  %11 = icmp ne i32 %10, 0
  br i1 %11, label %13, label %12

12:                                               ; preds = %1
  store i32 1, ptr %5, align 4
  br label %41

13:                                               ; preds = %1
  store ptr null, ptr %4, align 8, !tbaa !9
  %14 = load ptr, ptr %2, align 8, !tbaa !4
  %15 = getelementptr inbounds nuw %struct.submodule_cache, ptr %14, i32 0, i32 1
  %16 = call ptr @hashmap_iter_first(ptr noundef %15, ptr noundef %3)
  %17 = call ptr @container_of_or_null_offset(ptr noundef %16, i64 noundef 0)
  store ptr %17, ptr %4, align 8, !tbaa !9
  br label %18

18:                                               ; preds = %23, %13
  %19 = load ptr, ptr %4, align 8, !tbaa !9
  %20 = icmp ne ptr %19, null
  br i1 %20, label %21, label %26

21:                                               ; preds = %18
  %22 = load ptr, ptr %4, align 8, !tbaa !9
  call void @free_one_config(ptr noundef %22)
  br label %23

23:                                               ; preds = %21
  %24 = call ptr @hashmap_iter_next(ptr noundef %3)
  %25 = call ptr @container_of_or_null_offset(ptr noundef %24, i64 noundef 0)
  store ptr %25, ptr %4, align 8, !tbaa !9
  br label %18, !llvm.loop !11

26:                                               ; preds = %18
  %27 = load ptr, ptr %2, align 8, !tbaa !4
  %28 = getelementptr inbounds nuw %struct.submodule_cache, ptr %27, i32 0, i32 0
  call void @hashmap_clear_(ptr noundef %28, i64 noundef 0)
  %29 = load ptr, ptr %2, align 8, !tbaa !4
  %30 = getelementptr inbounds nuw %struct.submodule_cache, ptr %29, i32 0, i32 1
  call void @hashmap_clear_(ptr noundef %30, i64 noundef 0)
  %31 = load ptr, ptr %2, align 8, !tbaa !4
  %32 = getelementptr inbounds nuw %struct.submodule_cache, ptr %31, i32 0, i32 2
  %33 = load i8, ptr %32, align 8
  %34 = and i8 %33, -2
  %35 = or i8 %34, 0
  store i8 %35, ptr %32, align 8
  %36 = load ptr, ptr %2, align 8, !tbaa !4
  %37 = getelementptr inbounds nuw %struct.submodule_cache, ptr %36, i32 0, i32 2
  %38 = load i8, ptr %37, align 8
  %39 = and i8 %38, -3
  %40 = or i8 %39, 0
  store i8 %40, ptr %37, align 8
  store i32 0, ptr %5, align 4
  br label %41

41:                                               ; preds = %26, %12
  call void @llvm.lifetime.end.p0(i64 8, ptr %4) #9
  call void @llvm.lifetime.end.p0(i64 24, ptr %3) #9
  %42 = load i32, ptr %5, align 4
  switch i32 %42, label %44 [
    i32 0, label %43
    i32 1, label %43
  ]

43:                                               ; preds = %41, %41
  ret void

44:                                               ; preds = %41
  unreachable
}