; Function Attrs: nounwind uwtable
define internal fastcc void @submodule_cache_clear(ptr noundef %0) unnamed_addr #0 {
  %2 = alloca %struct.hashmap_iter, align 8
  call void @llvm.lifetime.start.p0(i64 24, ptr nonnull %2) #15
  %3 = getelementptr inbounds nuw i8, ptr %0, i64 96
  %4 = load i8, ptr %3, align 8
  %5 = and i8 %4, 1
  %.not = icmp eq i8 %5, 0
  br i1 %.not, label %30, label %6

6:                                                ; preds = %1
  %7 = getelementptr inbounds nuw i8, ptr %0, i64 48
  call void @hashmap_iter_init(ptr noundef nonnull %7, ptr noundef nonnull %2) #15
  %8 = call ptr @hashmap_iter_next(ptr noundef nonnull %2) #15
  %.not89 = icmp eq ptr %8, null
  br i1 %.not89, label %._crit_edge, label %.lr.ph

.lr.ph:                                           ; preds = %6, %.lr.ph
  %.010 = phi ptr [ %27, %.lr.ph ], [ %8, %6 ]
  %9 = getelementptr inbounds nuw i8, ptr %.010, i64 16
  %10 = load ptr, ptr %9, align 8, !tbaa !4
  %11 = load ptr, ptr %10, align 8, !tbaa !13
  call void @free(ptr noundef %11) #15
  %12 = load ptr, ptr %9, align 8, !tbaa !4
  %13 = getelementptr inbounds nuw i8, ptr %12, i64 8
  %14 = load ptr, ptr %13, align 8, !tbaa !18
  call void @free(ptr noundef %14) #15
  %15 = load ptr, ptr %9, align 8, !tbaa !4
  %16 = getelementptr inbounds nuw i8, ptr %15, i64 40
  %17 = load ptr, ptr %16, align 8, !tbaa !19
  call void @free(ptr noundef %17) #15
  %18 = load ptr, ptr %9, align 8, !tbaa !4
  %19 = getelementptr inbounds nuw i8, ptr %18, i64 16
  %20 = load ptr, ptr %19, align 8, !tbaa !20
  call void @free(ptr noundef %20) #15
  %21 = load ptr, ptr %9, align 8, !tbaa !4
  %22 = getelementptr inbounds nuw i8, ptr %21, i64 32
  %23 = load ptr, ptr %22, align 8, !tbaa !21
  call void @free(ptr noundef %23) #15
  %24 = load ptr, ptr %9, align 8, !tbaa !4
  %25 = getelementptr inbounds nuw i8, ptr %24, i64 48
  call void @submodule_update_strategy_release(ptr noundef nonnull %25) #15
  %26 = load ptr, ptr %9, align 8, !tbaa !4
  call void @free(ptr noundef %26) #15
  %27 = call ptr @hashmap_iter_next(ptr noundef nonnull %2) #15
  %.not8 = icmp eq ptr %27, null
  br i1 %.not8, label %._crit_edge, label %.lr.ph, !llvm.loop !22

._crit_edge:                                      ; preds = %.lr.ph, %6
  call void @hashmap_clear_(ptr noundef %0, i64 noundef 0) #15
  call void @hashmap_clear_(ptr noundef nonnull %7, i64 noundef 0) #15
  %28 = load i8, ptr %3, align 8
  %29 = and i8 %28, -4
  store i8 %29, ptr %3, align 8
  br label %30

30:                                               ; preds = %1, %._crit_edge
  call void @llvm.lifetime.end.p0(i64 24, ptr nonnull %2) #15
  ret void
}